target datalayout = "e-m:e-p270:32:32-p271:32:32-p272:64:64-i64:64-i128:128-f80:128-n8:16:32:64-S128"
target triple = "x86_64-pc-linux-gnu"

; Function Attrs: alwaysinline nounwind willreturn memory(none) uwtable
define internal zeroext i8 @av_clip_uint8_c(i32 noundef %0) #7 {
  %2 = alloca i8, align 1
  %3 = alloca i32, align 4
  store i32 %0, ptr %3, align 4, !tbaa !13
  %4 = load i32, ptr %3, align 4, !tbaa !13
  %5 = and i32 %4, -256
  %6 = icmp ne i32 %5, 0
  br i1 %6, label %7, label %12

7:                                                ; preds = %1
  %8 = load i32, ptr %3, align 4, !tbaa !13
  %9 = xor i32 %8, -1
  %10 = ashr i32 %9, 31
  %11 = trunc i32 %10 to i8
  store i8 %11, ptr %2, align 1
  br label %15

12:                                               ; preds = %1
  %13 = load i32, ptr %3, align 4, !tbaa !13
  %14 = trunc i32 %13 to i8
  store i8 %14, ptr %2, align 1
  br label %15

15:                                               ; preds = %12, %7
  %16 = load i8, ptr %2, align 1
  ret i8 %16
}

; Function Attrs: nounwind uwtable
define internal void @vp3_idct_dc_add_c(ptr noundef %0, i64 noundef %1, ptr noundef %2) #0 {
  %4 = alloca ptr, align 8
  %5 = alloca i64, align 8
  %6 = alloca ptr, align 8
  %7 = alloca i32, align 4
  %8 = alloca i32, align 4
  store ptr %0, ptr %4, align 8, !tbaa !4
  store i64 %1, ptr %5, align 8, !tbaa !9
  store ptr %2, ptr %6, align 8, !tbaa !11
  call void @llvm.lifetime.start.p0(i64 4, ptr %7) #9
  call void @llvm.lifetime.start.p0(i64 4, ptr %8) #9
  %9 = load ptr, ptr %6, align 8, !tbaa !11
  %10 = getelementptr inbounds i16, ptr %9, i64 0
  %11 = load i16, ptr %10, align 2, !tbaa !15
  %12 = sext i16 %11 to i32
  %13 = add nsw i32 %12, 15
  %14 = ashr i32 %13, 5
  store i32 %14, ptr %8, align 4, !tbaa !13
  store i32 0, ptr %7, align 4, !tbaa !13
  br label %15

15:                                               ; preds = %94, %3
  %16 = load i32, ptr %7, align 4, !tbaa !13
  %17 = icmp slt i32 %16, 8
  br i1 %17, label %18, label %97

18:                                               ; preds = %15
  %19 = load ptr, ptr %4, align 8, !tbaa !4
  %20 = getelementptr inbounds i8, ptr %19, i64 0
  %21 = load i8, ptr %20, align 1, !tbaa !19
  %22 = zext i8 %21 to i32
  %23 = load i32, ptr %8, align 4, !tbaa !13
  %24 = add nsw i32 %22, %23
  %25 = call zeroext i8 @av_clip_uint8_c(i32 noundef %24) #10
  %26 = load ptr, ptr %4, align 8, !tbaa !4
  %27 = getelementptr inbounds i8, ptr %26, i64 0
  store i8 %25, ptr %27, align 1, !tbaa !19
  %28 = load ptr, ptr %4, align 8, !tbaa !4
  %29 = getelementptr inbounds i8, ptr %28, i64 1
  %30 = load i8, ptr %29, align 1, !tbaa !19
  %31 = zext i8 %30 to i32
  %32 = load i32, ptr %8, align 4, !tbaa !13
  %33 = add nsw i32 %31, %32
  %34 = call zeroext i8 @av_clip_uint8_c(i32 noundef %33) #10
  %35 = load ptr, ptr %4, align 8, !tbaa !4
  %36 = getelementptr inbounds i8, ptr %35, i64 1
  store i8 %34, ptr %36, align 1, !tbaa !19
  %37 = load ptr, ptr %4, align 8, !tbaa !4
  %38 = getelementptr inbounds i8, ptr %37, i64 2
  %39 = load i8, ptr %38, align 1, !tbaa !19
  %40 = zext i8 %39 to i32
  %41 = load i32, ptr %8, align 4, !tbaa !13
  %42 = add nsw i32 %40, %41
  %43 = call zeroext i8 @av_clip_uint8_c(i32 noundef %42) #10
  %44 = load ptr, ptr %4, align 8, !tbaa !4
  %45 = getelementptr inbounds i8, ptr %44, i64 2
  store i8 %43, ptr %45, align 1, !tbaa !19
  %46 = load ptr, ptr %4, align 8, !tbaa !4
  %47 = getelementptr inbounds i8, ptr %46, i64 3
  %48 = load i8, ptr %47, align 1, !tbaa !19
  %49 = zext i8 %48 to i32
  %50 = load i32, ptr %8, align 4, !tbaa !13
  %51 = add nsw i32 %49, %50
  %52 = call zeroext i8 @av_clip_uint8_c(i32 noundef %51) #10
  %53 = load ptr, ptr %4, align 8, !tbaa !4
  %54 = getelementptr inbounds i8, ptr %53, i64 3
  store i8 %52, ptr %54, align 1, !tbaa !19
  %55 = load ptr, ptr %4, align 8, !tbaa !4
  %56 = getelementptr inbounds i8, ptr %55, i64 4
  %57 = load i8, ptr %56, align 1, !tbaa !19
  %58 = zext i8 %57 to i32
  %59 = load i32, ptr %8, align 4, !tbaa !13
  %60 = add nsw i32 %58, %59
  %61 = call zeroext i8 @av_clip_uint8_c(i32 noundef %60) #10
  %62 = load ptr, ptr %4, align 8, !tbaa !4
  %63 = getelementptr inbounds i8, ptr %62, i64 4
  store i8 %61, ptr %63, align 1, !tbaa !19
  %64 = load ptr, ptr %4, align 8, !tbaa !4
  %65 = getelementptr inbounds i8, ptr %64, i64 5
  %66 = load i8, ptr %65, align 1, !tbaa !19
  %67 = zext i8 %66 to i32
  %68 = load i32, ptr %8, align 4, !tbaa !13
  %69 = add nsw i32 %67, %68
  %70 = call zeroext i8 @av_clip_uint8_c(i32 noundef %69) #10
  %71 = load ptr, ptr %4, align 8, !tbaa !4
  %72 = getelementptr inbounds i8, ptr %71, i64 5
  store i8 %70, ptr %72, align 1, !tbaa !19
  %73 = load ptr, ptr %4, align 8, !tbaa !4
  %74 = getelementptr inbounds i8, ptr %73, i64 6
  %75 = load i8, ptr %74, align 1, !tbaa !19
  %76 = zext i8 %75 to i32
  %77 = load i32, ptr %8, align 4, !tbaa !13
  %78 = add nsw i32 %76, %77
  %79 = call zeroext i8 @av_clip_uint8_c(i32 noundef %78) #10
  %80 = load ptr, ptr %4, align 8, !tbaa !4
  %81 = getelementptr inbounds i8, ptr %80, i64 6
  store i8 %79, ptr %81, align 1, !tbaa !19
  %82 = load ptr, ptr %4, align 8, !tbaa !4
  %83 = getelementptr inbounds i8, ptr %82, i64 7
  %84 = load i8, ptr %83, align 1, !tbaa !19
  %85 = zext i8 %84 to i32
  %86 = load i32, ptr %8, align 4, !tbaa !13
  %87 = add nsw i32 %85, %86
  %88 = call zeroext i8 @av_clip_uint8_c(i32 noundef %87) #10
  %89 = load ptr, ptr %4, align 8, !tbaa !4
  %90 = getelementptr inbounds i8, ptr %89, i64 7
  store i8 %88, ptr %90, align 1, !tbaa !19
  %91 = load i64, ptr %5, align 8, !tbaa !9
  %92 = load ptr, ptr %4, align 8, !tbaa !4
  %93 = getelementptr inbounds i8, ptr %92, i64 %91
  store ptr %93, ptr %4, align 8, !tbaa !4
  br label %94

94:                                               ; preds = %18
  %95 = load i32, ptr %7, align 4, !tbaa !13
  %96 = add nsw i32 %95, 1
  store i32 %96, ptr %7, align 4, !tbaa !13
  br label %15, !llvm.loop !37

97:                                               ; preds = %15
  %98 = load ptr, ptr %6, align 8, !tbaa !11
  %99 = getelementptr inbounds i16, ptr %98, i64 0
  store i16 0, ptr %99, align 2, !tbaa !15
  call void @llvm.lifetime.end.p0(i64 4, ptr %8) #9
  call void @llvm.lifetime.end.p0(i64 4, ptr %7) #9
  ret void
}