; Function Attrs: nofree norecurse nosync nounwind memory(argmem: readwrite) uwtable
define internal void @vp3_idct_dc_add_c(ptr noundef captures(none) %0, i64 noundef %1, ptr noundef captures(none) %2) #0 {
.lver.check:
  %3 = load i16, ptr %2, align 2, !tbaa !4
  %4 = sext i16 %3 to i32
  %5 = add nsw i32 %4, 15
  %6 = ashr i32 %5, 5
  %ident.check.not = icmp eq i64 %1, 1
  br i1 %ident.check.not, label %.ph, label %.ph.lver.orig

.ph.lver.orig:                                    ; preds = %.lver.check, %.ph.lver.orig
  %.052.lver.orig = phi ptr [ %54, %.ph.lver.orig ], [ %0, %.lver.check ]
  %.02951.lver.orig = phi i32 [ %55, %.ph.lver.orig ], [ 0, %.lver.check ]
  %7 = load i8, ptr %.052.lver.orig, align 1, !tbaa !10
  %8 = zext i8 %7 to i32
  %9 = add nsw i32 %6, %8
  %.not.i.lver.orig = icmp ult i32 %9, 256
  %isnotneg.i.lver.orig = icmp sgt i32 %9, -1
  %10 = sext i1 %isnotneg.i.lver.orig to i8
  %11 = trunc nuw i32 %9 to i8
  %.0.i.lver.orig = select i1 %.not.i.lver.orig, i8 %11, i8 %10
  store i8 %.0.i.lver.orig, ptr %.052.lver.orig, align 1, !tbaa !10
  %12 = getelementptr inbounds nuw i8, ptr %.052.lver.orig, i64 1
  %13 = load i8, ptr %12, align 1, !tbaa !10
  %14 = zext i8 %13 to i32
  %15 = add nsw i32 %6, %14
  %.not.i30.lver.orig = icmp ult i32 %15, 256
  %isnotneg.i31.lver.orig = icmp sgt i32 %15, -1
  %16 = sext i1 %isnotneg.i31.lver.orig to i8
  %17 = trunc nuw i32 %15 to i8
  %.0.i32.lver.orig = select i1 %.not.i30.lver.orig, i8 %17, i8 %16
  store i8 %.0.i32.lver.orig, ptr %12, align 1, !tbaa !10
  %18 = getelementptr inbounds nuw i8, ptr %.052.lver.orig, i64 2
  %19 = load i8, ptr %18, align 1, !tbaa !10
  %20 = zext i8 %19 to i32
  %21 = add nsw i32 %6, %20
  %.not.i33.lver.orig = icmp ult i32 %21, 256
  %isnotneg.i34.lver.orig = icmp sgt i32 %21, -1
  %22 = sext i1 %isnotneg.i34.lver.orig to i8
  %23 = trunc nuw i32 %21 to i8
  %.0.i35.lver.orig = select i1 %.not.i33.lver.orig, i8 %23, i8 %22
  store i8 %.0.i35.lver.orig, ptr %18, align 1, !tbaa !10
  %24 = getelementptr inbounds nuw i8, ptr %.052.lver.orig, i64 3
  %25 = load i8, ptr %24, align 1, !tbaa !10
  %26 = zext i8 %25 to i32
  %27 = add nsw i32 %6, %26
  %.not.i36.lver.orig = icmp ult i32 %27, 256
  %isnotneg.i37.lver.orig = icmp sgt i32 %27, -1
  %28 = sext i1 %isnotneg.i37.lver.orig to i8
  %29 = trunc nuw i32 %27 to i8
  %.0.i38.lver.orig = select i1 %.not.i36.lver.orig, i8 %29, i8 %28
  store i8 %.0.i38.lver.orig, ptr %24, align 1, !tbaa !10
  %30 = getelementptr inbounds nuw i8, ptr %.052.lver.orig, i64 4
  %31 = load i8, ptr %30, align 1, !tbaa !10
  %32 = zext i8 %31 to i32
  %33 = add nsw i32 %6, %32
  %.not.i39.lver.orig = icmp ult i32 %33, 256
  %isnotneg.i40.lver.orig = icmp sgt i32 %33, -1
  %34 = sext i1 %isnotneg.i40.lver.orig to i8
  %35 = trunc nuw i32 %33 to i8
  %.0.i41.lver.orig = select i1 %.not.i39.lver.orig, i8 %35, i8 %34
  store i8 %.0.i41.lver.orig, ptr %30, align 1, !tbaa !10
  %36 = getelementptr inbounds nuw i8, ptr %.052.lver.orig, i64 5
  %37 = load i8, ptr %36, align 1, !tbaa !10
  %38 = zext i8 %37 to i32
  %39 = add nsw i32 %6, %38
  %.not.i42.lver.orig = icmp ult i32 %39, 256
  %isnotneg.i43.lver.orig = icmp sgt i32 %39, -1
  %40 = sext i1 %isnotneg.i43.lver.orig to i8
  %41 = trunc nuw i32 %39 to i8
  %.0.i44.lver.orig = select i1 %.not.i42.lver.orig, i8 %41, i8 %40
  store i8 %.0.i44.lver.orig, ptr %36, align 1, !tbaa !10
  %42 = getelementptr inbounds nuw i8, ptr %.052.lver.orig, i64 6
  %43 = load i8, ptr %42, align 1, !tbaa !10
  %44 = zext i8 %43 to i32
  %45 = add nsw i32 %6, %44
  %.not.i45.lver.orig = icmp ult i32 %45, 256
  %isnotneg.i46.lver.orig = icmp sgt i32 %45, -1
  %46 = sext i1 %isnotneg.i46.lver.orig to i8
  %47 = trunc nuw i32 %45 to i8
  %.0.i47.lver.orig = select i1 %.not.i45.lver.orig, i8 %47, i8 %46
  store i8 %.0.i47.lver.orig, ptr %42, align 1, !tbaa !10
  %48 = getelementptr inbounds nuw i8, ptr %.052.lver.orig, i64 7
  %49 = load i8, ptr %48, align 1, !tbaa !10
  %50 = zext i8 %49 to i32
  %51 = add nsw i32 %6, %50
  %.not.i48.lver.orig = icmp ult i32 %51, 256
  %isnotneg.i49.lver.orig = icmp sgt i32 %51, -1
  %52 = sext i1 %isnotneg.i49.lver.orig to i8
  %53 = trunc nuw i32 %51 to i8
  %.0.i50.lver.orig = select i1 %.not.i48.lver.orig, i8 %53, i8 %52
  store i8 %.0.i50.lver.orig, ptr %48, align 1, !tbaa !10
  %54 = getelementptr inbounds i8, ptr %.052.lver.orig, i64 %1
  %55 = add nuw nsw i32 %.02951.lver.orig, 1
  %exitcond.not.lver.orig = icmp eq i32 %55, 8
  br i1 %exitcond.not.lver.orig, label %.loopexit, label %.ph.lver.orig, !llvm.loop !29

.ph:                                              ; preds = %.lver.check
  %scevgep = getelementptr i8, ptr %0, i64 6
  %load_initial = load i8, ptr %scevgep, align 1
  br label %56

56:                                               ; preds = %.ph, %56
  %store_forwarded = phi i8 [ %load_initial, %.ph ], [ %.0.i50, %56 ]
  %.052 = phi ptr [ %0, %.ph ], [ %103, %56 ]
  %.02951 = phi i32 [ 0, %.ph ], [ %104, %56 ]
  %57 = load i8, ptr %.052, align 1, !tbaa !10
  %58 = zext i8 %57 to i32
  %59 = add nsw i32 %6, %58
  %.not.i = icmp ult i32 %59, 256
  %isnotneg.i = icmp sgt i32 %59, -1
  %60 = sext i1 %isnotneg.i to i8
  %61 = trunc nuw i32 %59 to i8
  %.0.i = select i1 %.not.i, i8 %61, i8 %60
  store i8 %.0.i, ptr %.052, align 1, !tbaa !10
  %62 = getelementptr inbounds nuw i8, ptr %.052, i64 1
  %63 = load i8, ptr %62, align 1, !tbaa !10
  %64 = zext i8 %63 to i32
  %65 = add nsw i32 %6, %64
  %.not.i30 = icmp ult i32 %65, 256
  %isnotneg.i31 = icmp sgt i32 %65, -1
  %66 = sext i1 %isnotneg.i31 to i8
  %67 = trunc nuw i32 %65 to i8
  %.0.i32 = select i1 %.not.i30, i8 %67, i8 %66
  store i8 %.0.i32, ptr %62, align 1, !tbaa !10
  %68 = getelementptr inbounds nuw i8, ptr %.052, i64 2
  %69 = load i8, ptr %68, align 1, !tbaa !10
  %70 = zext i8 %69 to i32
  %71 = add nsw i32 %6, %70
  %.not.i33 = icmp ult i32 %71, 256
  %isnotneg.i34 = icmp sgt i32 %71, -1
  %72 = sext i1 %isnotneg.i34 to i8
  %73 = trunc nuw i32 %71 to i8
  %.0.i35 = select i1 %.not.i33, i8 %73, i8 %72
  store i8 %.0.i35, ptr %68, align 1, !tbaa !10
  %74 = getelementptr inbounds nuw i8, ptr %.052, i64 3
  %75 = load i8, ptr %74, align 1, !tbaa !10
  %76 = zext i8 %75 to i32
  %77 = add nsw i32 %6, %76
  %.not.i36 = icmp ult i32 %77, 256
  %isnotneg.i37 = icmp sgt i32 %77, -1
  %78 = sext i1 %isnotneg.i37 to i8
  %79 = trunc nuw i32 %77 to i8
  %.0.i38 = select i1 %.not.i36, i8 %79, i8 %78
  store i8 %.0.i38, ptr %74, align 1, !tbaa !10
  %80 = getelementptr inbounds nuw i8, ptr %.052, i64 4
  %81 = load i8, ptr %80, align 1, !tbaa !10
  %82 = zext i8 %81 to i32
  %83 = add nsw i32 %6, %82
  %.not.i39 = icmp ult i32 %83, 256
  %isnotneg.i40 = icmp sgt i32 %83, -1
  %84 = sext i1 %isnotneg.i40 to i8
  %85 = trunc nuw i32 %83 to i8
  %.0.i41 = select i1 %.not.i39, i8 %85, i8 %84
  store i8 %.0.i41, ptr %80, align 1, !tbaa !10
  %86 = getelementptr inbounds nuw i8, ptr %.052, i64 5
  %87 = load i8, ptr %86, align 1, !tbaa !10
  %88 = zext i8 %87 to i32
  %89 = add nsw i32 %6, %88
  %.not.i42 = icmp ult i32 %89, 256
  %isnotneg.i43 = icmp sgt i32 %89, -1
  %90 = sext i1 %isnotneg.i43 to i8
  %91 = trunc nuw i32 %89 to i8
  %.0.i44 = select i1 %.not.i42, i8 %91, i8 %90
  store i8 %.0.i44, ptr %86, align 1, !tbaa !10
  %92 = getelementptr inbounds nuw i8, ptr %.052, i64 6
  %93 = zext i8 %store_forwarded to i32
  %94 = add nsw i32 %6, %93
  %.not.i45 = icmp ult i32 %94, 256
  %isnotneg.i46 = icmp sgt i32 %94, -1
  %95 = sext i1 %isnotneg.i46 to i8
  %96 = trunc nuw i32 %94 to i8
  %.0.i47 = select i1 %.not.i45, i8 %96, i8 %95
  store i8 %.0.i47, ptr %92, align 1, !tbaa !10
  %97 = getelementptr inbounds nuw i8, ptr %.052, i64 7
  %98 = load i8, ptr %97, align 1, !tbaa !10
  %99 = zext i8 %98 to i32
  %100 = add nsw i32 %6, %99
  %.not.i48 = icmp ult i32 %100, 256
  %isnotneg.i49 = icmp sgt i32 %100, -1
  %101 = sext i1 %isnotneg.i49 to i8
  %102 = trunc nuw i32 %100 to i8
  %.0.i50 = select i1 %.not.i48, i8 %102, i8 %101
  store i8 %.0.i50, ptr %97, align 1, !tbaa !10
  %103 = getelementptr inbounds nuw i8, ptr %.052, i64 %1
  %104 = add nuw nsw i32 %.02951, 1
  %exitcond.not = icmp eq i32 %104, 8
  br i1 %exitcond.not, label %.loopexit, label %56, !llvm.loop !29

.loopexit:                                        ; preds = %.ph.lver.orig, %56
  store i16 0, ptr %2, align 2, !tbaa !4
  ret void
}